#include <math.h>
#include <stdio.h>
#include <stdlib.h>
#include <string.h>


int main(){
       char s[100];
	   char a[100];
	   char b[100];
	   gets(s);
	   gets(a);
	   gets(b);

	   int ls=strlen(s);
	   int la=strlen(a);

	   int i,j;
	   int t;
	   int t2=0;
	   for(i=0;i<ls;i++){
		   t=1;
		   for(j=0;j<la;j++){
			   if(a[j]==s[i+j]){
					t=1;
					continue;
			   }

			   if(a[j]!=s[i+j]){
					t=0;
					break;
			   }	
		   }

		   if(t==1){
			t2+=1;
		   }
		   
		   if(t==1&&t2==1){
				printf("%s",b);
				i+=la-1;
			}
		   else{
				printf("%c",s[i]);
		   }
	   }
	  

	   


	   return 0;
}